target datalayout = "e-m:e-p270:32:32-p271:32:32-p272:64:64-i64:64-i128:128-f80:128-n8:16:32:64-S128"
target triple = "x86_64-pc-linux-gnu"

%struct.AVRational = type { i32, i32 }
%struct.AVLumaCoefficients = type { %struct.AVRational, %struct.AVRational, %struct.AVRational }

@ycgco_matrix = internal constant [3 x [3 x double]] [[3 x double] [double 2.500000e-01, double 5.000000e-01, double 2.500000e-01], [3 x double] [double -2.500000e-01, double 5.000000e-01, double -2.500000e-01], [3 x double] [double 5.000000e-01, double 0.000000e+00, double -5.000000e-01]], align 16
@gbr_matrix = internal constant [3 x [3 x double]] [[3 x double] [double 0.000000e+00, double 1.000000e+00, double 0.000000e+00], [3 x double] [double 0.000000e+00, double -5.000000e-01, double 5.000000e-01], [3 x double] [double 5.000000e-01, double -5.000000e-01, double 0.000000e+00]], align 16

; Function Attrs: inlinehint nounwind uwtable
define internal double @av_q2d(i64 %0) #3 {
  %2 = alloca %struct.AVRational, align 4
  store i64 %0, ptr %2, align 4
  %3 = getelementptr inbounds nuw %struct.AVRational, ptr %2, i32 0, i32 0
  %4 = load i32, ptr %3, align 4, !tbaa !23
  %5 = sitofp i32 %4 to double
  %6 = getelementptr inbounds nuw %struct.AVRational, ptr %2, i32 0, i32 1
  %7 = load i32, ptr %6, align 4, !tbaa !25
  %8 = sitofp i32 %7 to double
  %9 = fdiv nsz double %5, %8
  ret double %9
}

; Function Attrs: nounwind uwtable
define void @ff_fill_rgb2yuv_table(ptr noundef %0, ptr noundef %1) #0 {
  %3 = alloca ptr, align 8
  %4 = alloca ptr, align 8
  %5 = alloca double, align 8
  %6 = alloca double, align 8
  %7 = alloca double, align 8
  %8 = alloca double, align 8
  %9 = alloca double, align 8
  %10 = alloca i32, align 4
  store ptr %0, ptr %3, align 8, !tbaa !26
  store ptr %1, ptr %4, align 8, !tbaa !4
  call void @llvm.lifetime.start.p0(i64 8, ptr %5) #7
  call void @llvm.lifetime.start.p0(i64 8, ptr %6) #7
  call void @llvm.lifetime.start.p0(i64 8, ptr %7) #7
  %11 = load ptr, ptr %3, align 8, !tbaa !26
  %12 = getelementptr inbounds nuw %struct.AVLumaCoefficients, ptr %11, i32 0, i32 0
  %13 = load i64, ptr %12, align 4
  %14 = call nsz double @av_q2d(i64 %13)
  store double %14, ptr %7, align 8, !tbaa !9
  call void @llvm.lifetime.start.p0(i64 8, ptr %8) #7
  %15 = load ptr, ptr %3, align 8, !tbaa !26
  %16 = getelementptr inbounds nuw %struct.AVLumaCoefficients, ptr %15, i32 0, i32 1
  %17 = load i64, ptr %16, align 4
  %18 = call nsz double @av_q2d(i64 %17)
  store double %18, ptr %8, align 8, !tbaa !9
  call void @llvm.lifetime.start.p0(i64 8, ptr %9) #7
  %19 = load ptr, ptr %3, align 8, !tbaa !26
  %20 = getelementptr inbounds nuw %struct.AVLumaCoefficients, ptr %19, i32 0, i32 2
  %21 = load i64, ptr %20, align 4
  %22 = call nsz double @av_q2d(i64 %21)
  store double %22, ptr %9, align 8, !tbaa !9
  %23 = load double, ptr %7, align 8, !tbaa !9
  %24 = fcmp nsz oeq double %23, 2.500000e-01
  br i1 %24, label %25, label %33

25:                                               ; preds = %2
  %26 = load double, ptr %8, align 8, !tbaa !9
  %27 = fcmp nsz oeq double %26, 5.000000e-01
  br i1 %27, label %28, label %33

28:                                               ; preds = %25
  %29 = load double, ptr %9, align 8, !tbaa !9
  %30 = fcmp nsz oeq double %29, 2.500000e-01
  br i1 %30, label %31, label %33

31:                                               ; preds = %28
  %32 = load ptr, ptr %4, align 8, !tbaa !4
  call void @llvm.memcpy.p0.p0.i64(ptr align 8 %32, ptr align 16 @ycgco_matrix, i64 72, i1 false)
  store i32 1, ptr %10, align 4
  br label %94

33:                                               ; preds = %28, %25, %2
  %34 = load double, ptr %7, align 8, !tbaa !9
  %35 = fcmp nsz oeq double %34, 1.000000e+00
  br i1 %35, label %36, label %44

36:                                               ; preds = %33
  %37 = load double, ptr %8, align 8, !tbaa !9
  %38 = fcmp nsz oeq double %37, 1.000000e+00
  br i1 %38, label %39, label %44

39:                                               ; preds = %36
  %40 = load double, ptr %9, align 8, !tbaa !9
  %41 = fcmp nsz oeq double %40, 1.000000e+00
  br i1 %41, label %42, label %44

42:                                               ; preds = %39
  %43 = load ptr, ptr %4, align 8, !tbaa !4
  call void @llvm.memcpy.p0.p0.i64(ptr align 8 %43, ptr align 16 @gbr_matrix, i64 72, i1 false)
  store i32 1, ptr %10, align 4
  br label %94

44:                                               ; preds = %39, %36, %33
  br label %45

45:                                               ; preds = %44
  %46 = load double, ptr %7, align 8, !tbaa !9
  %47 = load ptr, ptr %4, align 8, !tbaa !4
  %48 = getelementptr inbounds [3 x double], ptr %47, i64 0
  %49 = getelementptr inbounds [3 x double], ptr %48, i64 0, i64 0
  store double %46, ptr %49, align 8, !tbaa !9
  %50 = load double, ptr %8, align 8, !tbaa !9
  %51 = load ptr, ptr %4, align 8, !tbaa !4
  %52 = getelementptr inbounds [3 x double], ptr %51, i64 0
  %53 = getelementptr inbounds [3 x double], ptr %52, i64 0, i64 1
  store double %50, ptr %53, align 8, !tbaa !9
  %54 = load double, ptr %9, align 8, !tbaa !9
  %55 = load ptr, ptr %4, align 8, !tbaa !4
  %56 = getelementptr inbounds [3 x double], ptr %55, i64 0
  %57 = getelementptr inbounds [3 x double], ptr %56, i64 0, i64 2
  store double %54, ptr %57, align 8, !tbaa !9
  %58 = load double, ptr %9, align 8, !tbaa !9
  %59 = fsub nsz double %58, 1.000000e+00
  %60 = fdiv nsz double 5.000000e-01, %59
  store double %60, ptr %5, align 8, !tbaa !9
  %61 = load double, ptr %7, align 8, !tbaa !9
  %62 = fsub nsz double %61, 1.000000e+00
  %63 = fdiv nsz double 5.000000e-01, %62
  store double %63, ptr %6, align 8, !tbaa !9
  %64 = load double, ptr %5, align 8, !tbaa !9
  %65 = load double, ptr %7, align 8, !tbaa !9
  %66 = fmul nsz double %64, %65
  %67 = load ptr, ptr %4, align 8, !tbaa !4
  %68 = getelementptr inbounds [3 x double], ptr %67, i64 1
  %69 = getelementptr inbounds [3 x double], ptr %68, i64 0, i64 0
  store double %66, ptr %69, align 8, !tbaa !9
  %70 = load double, ptr %5, align 8, !tbaa !9
  %71 = load double, ptr %8, align 8, !tbaa !9
  %72 = fmul nsz double %70, %71
  %73 = load ptr, ptr %4, align 8, !tbaa !4
  %74 = getelementptr inbounds [3 x double], ptr %73, i64 1
  %75 = getelementptr inbounds [3 x double], ptr %74, i64 0, i64 1
  store double %72, ptr %75, align 8, !tbaa !9
  %76 = load ptr, ptr %4, align 8, !tbaa !4
  %77 = getelementptr inbounds [3 x double], ptr %76, i64 1
  %78 = getelementptr inbounds [3 x double], ptr %77, i64 0, i64 2
  store double 5.000000e-01, ptr %78, align 8, !tbaa !9
  %79 = load ptr, ptr %4, align 8, !tbaa !4
  %80 = getelementptr inbounds [3 x double], ptr %79, i64 2
  %81 = getelementptr inbounds [3 x double], ptr %80, i64 0, i64 0
  store double 5.000000e-01, ptr %81, align 8, !tbaa !9
  %82 = load double, ptr %6, align 8, !tbaa !9
  %83 = load double, ptr %8, align 8, !tbaa !9
  %84 = fmul nsz double %82, %83
  %85 = load ptr, ptr %4, align 8, !tbaa !4
  %86 = getelementptr inbounds [3 x double], ptr %85, i64 2
  %87 = getelementptr inbounds [3 x double], ptr %86, i64 0, i64 1
  store double %84, ptr %87, align 8, !tbaa !9
  %88 = load double, ptr %6, align 8, !tbaa !9
  %89 = load double, ptr %9, align 8, !tbaa !9
  %90 = fmul nsz double %88, %89
  %91 = load ptr, ptr %4, align 8, !tbaa !4
  %92 = getelementptr inbounds [3 x double], ptr %91, i64 2
  %93 = getelementptr inbounds [3 x double], ptr %92, i64 0, i64 2
  store double %90, ptr %93, align 8, !tbaa !9
  store i32 0, ptr %10, align 4
  br label %94

94:                                               ; preds = %45, %42, %31
  call void @llvm.lifetime.end.p0(i64 8, ptr %9) #7
  call void @llvm.lifetime.end.p0(i64 8, ptr %8) #7
  call void @llvm.lifetime.end.p0(i64 8, ptr %7) #7
  call void @llvm.lifetime.end.p0(i64 8, ptr %6) #7
  call void @llvm.lifetime.end.p0(i64 8, ptr %5) #7
  %95 = load i32, ptr %10, align 4
  switch i32 %95, label %97 [
    i32 0, label %96
    i32 1, label %96
  ]

96:                                               ; preds = %94, %94
  ret void

97:                                               ; preds = %94
  unreachable
}