; Function Attrs: mustprogress nofree norecurse nosync nounwind willreturn memory(argmem: readwrite) uwtable
define void @ff_fill_rgb2yuv_table(ptr noundef readonly captures(none) %0, ptr noundef writeonly captures(none) initializes((0, 72)) %1) local_unnamed_addr #3 {
  %3 = load i64, ptr %0, align 4
  %.sroa.0.0.extract.trunc.i = trunc i64 %3 to i32
  %.sroa.2.0.extract.shift.i = lshr i64 %3, 32
  %.sroa.2.0.extract.trunc.i = trunc nuw i64 %.sroa.2.0.extract.shift.i to i32
  %4 = sitofp i32 %.sroa.0.0.extract.trunc.i to double
  %5 = sitofp i32 %.sroa.2.0.extract.trunc.i to double
  %6 = fdiv nsz double %4, %5
  %7 = getelementptr inbounds nuw i8, ptr %0, i64 8
  %8 = load i64, ptr %7, align 4
  %.sroa.0.0.extract.trunc.i40 = trunc i64 %8 to i32
  %.sroa.2.0.extract.shift.i41 = lshr i64 %8, 32
  %.sroa.2.0.extract.trunc.i42 = trunc nuw i64 %.sroa.2.0.extract.shift.i41 to i32
  %9 = sitofp i32 %.sroa.0.0.extract.trunc.i40 to double
  %10 = sitofp i32 %.sroa.2.0.extract.trunc.i42 to double
  %11 = fdiv nsz double %9, %10
  %12 = getelementptr inbounds nuw i8, ptr %0, i64 16
  %13 = load i64, ptr %12, align 4
  %.sroa.0.0.extract.trunc.i43 = trunc i64 %13 to i32
  %.sroa.2.0.extract.shift.i44 = lshr i64 %13, 32
  %.sroa.2.0.extract.trunc.i45 = trunc nuw i64 %.sroa.2.0.extract.shift.i44 to i32
  %14 = sitofp i32 %.sroa.0.0.extract.trunc.i43 to double
  %15 = sitofp i32 %.sroa.2.0.extract.trunc.i45 to double
  %16 = fdiv nsz double %14, %15
  %17 = fcmp nsz oeq double %6, 2.500000e-01
  %18 = fcmp nsz oeq double %11, 5.000000e-01
  %or.cond = select i1 %17, i1 %18, i1 false
  %19 = fcmp nsz oeq double %16, 2.500000e-01
  %or.cond3 = select i1 %or.cond, i1 %19, i1 false
  br i1 %or.cond3, label %20, label %21

20:                                               ; preds = %2
  tail call void @llvm.memcpy.p0.p0.i64(ptr noundef nonnull align 8 dereferenceable(72) %1, ptr noundef nonnull align 16 dereferenceable(72) @ycgco_matrix, i64 72, i1 false)
  br label %43

21:                                               ; preds = %2
  %22 = fcmp nsz oeq double %6, 1.000000e+00
  %23 = fcmp nsz oeq double %11, 1.000000e+00
  %or.cond5 = select i1 %22, i1 %23, i1 false
  %24 = fcmp nsz oeq double %16, 1.000000e+00
  %or.cond7 = select i1 %or.cond5, i1 %24, i1 false
  br i1 %or.cond7, label %25, label %26

25:                                               ; preds = %21
  tail call void @llvm.memcpy.p0.p0.i64(ptr noundef nonnull align 8 dereferenceable(72) %1, ptr noundef nonnull align 16 dereferenceable(72) @gbr_matrix, i64 72, i1 false)
  br label %43

26:                                               ; preds = %21
  store double %6, ptr %1, align 8, !tbaa !4
  %27 = getelementptr inbounds nuw i8, ptr %1, i64 8
  store double %11, ptr %27, align 8, !tbaa !4
  %28 = getelementptr inbounds nuw i8, ptr %1, i64 16
  store double %16, ptr %28, align 8, !tbaa !4
  %29 = fadd nsz double %16, -1.000000e+00
  %30 = fdiv nsz double 5.000000e-01, %29
  %31 = fadd nsz double %6, -1.000000e+00
  %32 = fdiv nsz double 5.000000e-01, %31
  %33 = fmul nsz double %6, %30
  %34 = getelementptr inbounds nuw i8, ptr %1, i64 24
  store double %33, ptr %34, align 8, !tbaa !4
  %35 = fmul nsz double %11, %30
  %36 = getelementptr inbounds nuw i8, ptr %1, i64 32
  store double %35, ptr %36, align 8, !tbaa !4
  %37 = getelementptr inbounds nuw i8, ptr %1, i64 40
  store double 5.000000e-01, ptr %37, align 8, !tbaa !4
  %38 = getelementptr inbounds nuw i8, ptr %1, i64 48
  store double 5.000000e-01, ptr %38, align 8, !tbaa !4
  %39 = fmul nsz double %11, %32
  %40 = getelementptr inbounds nuw i8, ptr %1, i64 56
  store double %39, ptr %40, align 8, !tbaa !4
  %41 = fmul nsz double %32, %16
  %42 = getelementptr inbounds nuw i8, ptr %1, i64 64
  store double %41, ptr %42, align 8, !tbaa !4
  br label %43

43:                                               ; preds = %26, %25, %20
  ret void
}